target datalayout = "e-m:e-p270:32:32-p271:32:32-p272:64:64-i64:64-i128:128-f80:128-n8:16:32:64-S128"
target triple = "x86_64-pc-linux-gnu"

%struct.sockaddr = type { i16, [14 x i8] }
%struct.addrinfo = type { i32, i32, i32, i32, i32, ptr, ptr, ptr }

; Function Attrs: nounwind uwtable
define void @evutil_freeaddrinfo(ptr noundef %0) #0 {
  %2 = alloca ptr, align 8
  %3 = alloca ptr, align 8
  %4 = alloca ptr, align 8
  %5 = alloca ptr, align 8
  store ptr %0, ptr %2, align 8
  call void @llvm.lifetime.start.p0(i64 8, ptr %3) #11
  store ptr null, ptr %3, align 8
  call void @llvm.lifetime.start.p0(i64 8, ptr %4) #11
  %6 = load ptr, ptr %2, align 8
  store ptr %6, ptr %4, align 8
  br label %7

7:                                                ; preds = %41, %1
  %8 = load ptr, ptr %4, align 8
  %9 = icmp ne ptr %8, null
  br i1 %9, label %10, label %43

10:                                               ; preds = %7
  call void @llvm.lifetime.start.p0(i64 8, ptr %5) #11
  %11 = load ptr, ptr %4, align 8
  %12 = getelementptr inbounds nuw %struct.addrinfo, ptr %11, i32 0, i32 7
  %13 = load ptr, ptr %12, align 8
  store ptr %13, ptr %5, align 8
  %14 = load ptr, ptr %4, align 8
  %15 = getelementptr inbounds nuw %struct.addrinfo, ptr %14, i32 0, i32 0
  %16 = load i32, ptr %15, align 8
  %17 = and i32 %16, -2147483648
  %18 = icmp ne i32 %17, 0
  br i1 %18, label %19, label %39

19:                                               ; preds = %10
  %20 = load ptr, ptr %4, align 8
  %21 = getelementptr inbounds nuw %struct.addrinfo, ptr %20, i32 0, i32 6
  %22 = load ptr, ptr %21, align 8
  %23 = icmp ne ptr %22, null
  br i1 %23, label %24, label %28

24:                                               ; preds = %19
  %25 = load ptr, ptr %4, align 8
  %26 = getelementptr inbounds nuw %struct.addrinfo, ptr %25, i32 0, i32 6
  %27 = load ptr, ptr %26, align 8
  call void @event_mm_free_(ptr noundef %27)
  br label %28

28:                                               ; preds = %24, %19
  %29 = load ptr, ptr %4, align 8
  call void @event_mm_free_(ptr noundef %29)
  %30 = load ptr, ptr %3, align 8
  %31 = icmp eq ptr %30, null
  br i1 %31, label %32, label %34

32:                                               ; preds = %28
  %33 = load ptr, ptr %5, align 8
  store ptr %33, ptr %2, align 8
  br label %38

34:                                               ; preds = %28
  %35 = load ptr, ptr %5, align 8
  %36 = load ptr, ptr %3, align 8
  %37 = getelementptr inbounds nuw %struct.addrinfo, ptr %36, i32 0, i32 7
  store ptr %35, ptr %37, align 8
  br label %38

38:                                               ; preds = %34, %32
  br label %41

39:                                               ; preds = %10
  %40 = load ptr, ptr %4, align 8
  store ptr %40, ptr %3, align 8
  br label %41

41:                                               ; preds = %39, %38
  %42 = load ptr, ptr %5, align 8
  store ptr %42, ptr %4, align 8
  call void @llvm.lifetime.end.p0(i64 8, ptr %5) #11
  br label %7, !llvm.loop !5

43:                                               ; preds = %7
  %44 = load ptr, ptr %2, align 8
  %45 = icmp ne ptr %44, null
  br i1 %45, label %46, label %48

46:                                               ; preds = %43
  %47 = load ptr, ptr %2, align 8
  call void @freeaddrinfo(ptr noundef %47) #11
  br label %48

48:                                               ; preds = %46, %43
  call void @llvm.lifetime.end.p0(i64 8, ptr %4) #11
  call void @llvm.lifetime.end.p0(i64 8, ptr %3) #11
  ret void
}

; Function Attrs: nounwind uwtable
define ptr @evutil_new_addrinfo_(ptr noundef %0, i32 noundef %1, ptr noundef %2) #0 {
  %4 = alloca ptr, align 8
  %5 = alloca ptr, align 8
  %6 = alloca i32, align 4
  %7 = alloca ptr, align 8
  %8 = alloca ptr, align 8
  %9 = alloca ptr, align 8
  %10 = alloca ptr, align 8
  %11 = alloca %struct.addrinfo, align 8
  %12 = alloca i32, align 4
  store ptr %0, ptr %5, align 8
  store i32 %1, ptr %6, align 4
  store ptr %2, ptr %7, align 8
  call void @llvm.lifetime.start.p0(i64 8, ptr %8) #11
  br label %13

13:                                               ; preds = %3
  br label %14

14:                                               ; preds = %13
  br label %15

15:                                               ; preds = %14
  %16 = load ptr, ptr %7, align 8
  %17 = getelementptr inbounds nuw %struct.addrinfo, ptr %16, i32 0, i32 2
  %18 = load i32, ptr %17, align 8
  %19 = icmp eq i32 %18, 0
  br i1 %19, label %20, label %51

20:                                               ; preds = %15
  %21 = load ptr, ptr %7, align 8
  %22 = getelementptr inbounds nuw %struct.addrinfo, ptr %21, i32 0, i32 3
  %23 = load i32, ptr %22, align 4
  %24 = icmp eq i32 %23, 0
  br i1 %24, label %25, label %51

25:                                               ; preds = %20
  call void @llvm.lifetime.start.p0(i64 8, ptr %9) #11
  call void @llvm.lifetime.start.p0(i64 8, ptr %10) #11
  call void @llvm.lifetime.start.p0(i64 48, ptr %11) #11
  %26 = load ptr, ptr %7, align 8
  call void @llvm.memcpy.p0.p0.i64(ptr align 8 %11, ptr align 8 %26, i64 48, i1 false)
  %27 = getelementptr inbounds nuw %struct.addrinfo, ptr %11, i32 0, i32 2
  store i32 1, ptr %27, align 8
  %28 = getelementptr inbounds nuw %struct.addrinfo, ptr %11, i32 0, i32 3
  store i32 6, ptr %28, align 4
  %29 = load ptr, ptr %5, align 8
  %30 = load i32, ptr %6, align 4
  %31 = call ptr @evutil_new_addrinfo_(ptr noundef %29, i32 noundef %30, ptr noundef %11)
  store ptr %31, ptr %9, align 8
  %32 = load ptr, ptr %9, align 8
  %33 = icmp ne ptr %32, null
  br i1 %33, label %35, label %34

34:                                               ; preds = %25
  store ptr null, ptr %4, align 8
  store i32 1, ptr %12, align 4
  br label %50

35:                                               ; preds = %25
  %36 = getelementptr inbounds nuw %struct.addrinfo, ptr %11, i32 0, i32 2
  store i32 2, ptr %36, align 8
  %37 = getelementptr inbounds nuw %struct.addrinfo, ptr %11, i32 0, i32 3
  store i32 17, ptr %37, align 4
  %38 = load ptr, ptr %5, align 8
  %39 = load i32, ptr %6, align 4
  %40 = call ptr @evutil_new_addrinfo_(ptr noundef %38, i32 noundef %39, ptr noundef %11)
  store ptr %40, ptr %10, align 8
  %41 = load ptr, ptr %10, align 8
  %42 = icmp ne ptr %41, null
  br i1 %42, label %45, label %43

43:                                               ; preds = %35
  %44 = load ptr, ptr %9, align 8
  call void @evutil_freeaddrinfo(ptr noundef %44)
  store ptr null, ptr %4, align 8
  store i32 1, ptr %12, align 4
  br label %50

45:                                               ; preds = %35
  %46 = load ptr, ptr %10, align 8
  %47 = load ptr, ptr %9, align 8
  %48 = getelementptr inbounds nuw %struct.addrinfo, ptr %47, i32 0, i32 7
  store ptr %46, ptr %48, align 8
  %49 = load ptr, ptr %9, align 8
  store ptr %49, ptr %4, align 8
  store i32 1, ptr %12, align 4
  br label %50

50:                                               ; preds = %45, %43, %34
  call void @llvm.lifetime.end.p0(i64 48, ptr %11) #11
  call void @llvm.lifetime.end.p0(i64 8, ptr %10) #11
  call void @llvm.lifetime.end.p0(i64 8, ptr %9) #11
  br label %92

51:                                               ; preds = %20, %15
  %52 = load i32, ptr %6, align 4
  %53 = zext i32 %52 to i64
  %54 = add i64 48, %53
  %55 = call ptr @event_mm_calloc_(i64 noundef 1, i64 noundef %54)
  store ptr %55, ptr %8, align 8
  %56 = load ptr, ptr %8, align 8
  %57 = icmp ne ptr %56, null
  br i1 %57, label %59, label %58

58:                                               ; preds = %51
  store ptr null, ptr %4, align 8
  store i32 1, ptr %12, align 4
  br label %92

59:                                               ; preds = %51
  %60 = load ptr, ptr %8, align 8
  %61 = getelementptr inbounds nuw i8, ptr %60, i64 48
  %62 = load ptr, ptr %8, align 8
  %63 = getelementptr inbounds nuw %struct.addrinfo, ptr %62, i32 0, i32 5
  store ptr %61, ptr %63, align 8
  %64 = load ptr, ptr %8, align 8
  %65 = getelementptr inbounds nuw %struct.addrinfo, ptr %64, i32 0, i32 5
  %66 = load ptr, ptr %65, align 8
  %67 = load ptr, ptr %5, align 8
  %68 = load i32, ptr %6, align 4
  %69 = zext i32 %68 to i64
  call void @llvm.memcpy.p0.p0.i64(ptr align 2 %66, ptr align 2 %67, i64 %69, i1 false)
  %70 = load i32, ptr %6, align 4
  %71 = load ptr, ptr %8, align 8
  %72 = getelementptr inbounds nuw %struct.addrinfo, ptr %71, i32 0, i32 4
  store i32 %70, ptr %72, align 8
  %73 = load ptr, ptr %5, align 8
  %74 = getelementptr inbounds nuw %struct.sockaddr, ptr %73, i32 0, i32 0
  %75 = load i16, ptr %74, align 2
  %76 = zext i16 %75 to i32
  %77 = load ptr, ptr %8, align 8
  %78 = getelementptr inbounds nuw %struct.addrinfo, ptr %77, i32 0, i32 1
  store i32 %76, ptr %78, align 4
  %79 = load ptr, ptr %8, align 8
  %80 = getelementptr inbounds nuw %struct.addrinfo, ptr %79, i32 0, i32 0
  store i32 -2147483648, ptr %80, align 8
  %81 = load ptr, ptr %7, align 8
  %82 = getelementptr inbounds nuw %struct.addrinfo, ptr %81, i32 0, i32 2
  %83 = load i32, ptr %82, align 8
  %84 = load ptr, ptr %8, align 8
  %85 = getelementptr inbounds nuw %struct.addrinfo, ptr %84, i32 0, i32 2
  store i32 %83, ptr %85, align 8
  %86 = load ptr, ptr %7, align 8
  %87 = getelementptr inbounds nuw %struct.addrinfo, ptr %86, i32 0, i32 3
  %88 = load i32, ptr %87, align 4
  %89 = load ptr, ptr %8, align 8
  %90 = getelementptr inbounds nuw %struct.addrinfo, ptr %89, i32 0, i32 3
  store i32 %88, ptr %90, align 4
  %91 = load ptr, ptr %8, align 8
  store ptr %91, ptr %4, align 8
  store i32 1, ptr %12, align 4
  br label %92

92:                                               ; preds = %59, %58, %50
  call void @llvm.lifetime.end.p0(i64 8, ptr %8) #11
  %93 = load ptr, ptr %4, align 8
  ret ptr %93
}