; Function Attrs: nounwind uwtable
define ptr @evutil_new_addrinfo_(ptr noundef %0, i32 noundef %1, ptr noundef readonly captures(none) %2) local_unnamed_addr #0 {
  %4 = alloca %struct.addrinfo, align 8
  %5 = getelementptr inbounds nuw i8, ptr %2, i64 8
  %6 = load i32, ptr %5, align 8
  %7 = icmp eq i32 %6, 0
  br i1 %7, label %8, label %33

8:                                                ; preds = %3
  %9 = getelementptr inbounds nuw i8, ptr %2, i64 12
  %10 = load i32, ptr %9, align 4
  %11 = icmp eq i32 %10, 0
  br i1 %11, label %12, label %33

12:                                               ; preds = %8
  call void @llvm.lifetime.start.p0(i64 48, ptr nonnull %4) #30
  call void @llvm.memcpy.p0.p0.i64(ptr noundef nonnull align 8 dereferenceable(48) %4, ptr noundef nonnull align 8 dereferenceable(48) %2, i64 48, i1 false)
  %13 = getelementptr inbounds nuw i8, ptr %4, i64 8
  store i32 1, ptr %13, align 8
  %14 = getelementptr inbounds nuw i8, ptr %4, i64 12
  store i32 6, ptr %14, align 4
  %15 = call ptr @evutil_new_addrinfo_(ptr noundef %0, i32 noundef %1, ptr noundef nonnull %4)
  %.not33 = icmp eq ptr %15, null
  br i1 %.not33, label %evutil_freeaddrinfo.exit, label %16

16:                                               ; preds = %12
  store i32 2, ptr %13, align 8
  store i32 17, ptr %14, align 4
  %17 = call ptr @evutil_new_addrinfo_(ptr noundef %0, i32 noundef %1, ptr noundef nonnull %4)
  %.not34 = icmp eq ptr %17, null
  br i1 %.not34, label %.lr.ph.i, label %31

.lr.ph.i:                                         ; preds = %16, %29
  %.025.i = phi ptr [ %.1.i, %29 ], [ %15, %16 ]
  %.01524.i = phi ptr [ %19, %29 ], [ %15, %16 ]
  %.01623.i = phi ptr [ %.117.i, %29 ], [ null, %16 ]
  %18 = getelementptr inbounds nuw i8, ptr %.01524.i, i64 40
  %19 = load ptr, ptr %18, align 8
  %20 = load i32, ptr %.01524.i, align 8
  %.not20.i = icmp sgt i32 %20, -1
  br i1 %.not20.i, label %29, label %21

21:                                               ; preds = %.lr.ph.i
  %22 = getelementptr inbounds nuw i8, ptr %.01524.i, i64 32
  %23 = load ptr, ptr %22, align 8
  %.not21.i = icmp eq ptr %23, null
  br i1 %.not21.i, label %25, label %24

24:                                               ; preds = %21
  tail call void @event_mm_free_(ptr noundef nonnull %23) #30
  br label %25

25:                                               ; preds = %24, %21
  tail call void @event_mm_free_(ptr noundef nonnull %.01524.i) #30
  %26 = icmp eq ptr %.01623.i, null
  br i1 %26, label %29, label %27

27:                                               ; preds = %25
  %28 = getelementptr inbounds nuw i8, ptr %.01623.i, i64 40
  store ptr %19, ptr %28, align 8
  br label %29

29:                                               ; preds = %27, %25, %.lr.ph.i
  %.117.i = phi ptr [ %.01623.i, %27 ], [ null, %25 ], [ %.01524.i, %.lr.ph.i ]
  %.1.i = phi ptr [ %.025.i, %27 ], [ %19, %25 ], [ %.025.i, %.lr.ph.i ]
  %.not.i = icmp eq ptr %19, null
  br i1 %.not.i, label %._crit_edge.i, label %.lr.ph.i, !llvm.loop !5

._crit_edge.i:                                    ; preds = %29
  %.not19.i = icmp eq ptr %.1.i, null
  br i1 %.not19.i, label %evutil_freeaddrinfo.exit, label %30

30:                                               ; preds = %._crit_edge.i
  tail call void @freeaddrinfo(ptr noundef nonnull %.1.i) #30
  br label %evutil_freeaddrinfo.exit

31:                                               ; preds = %16
  %32 = getelementptr inbounds nuw i8, ptr %15, i64 40
  store ptr %17, ptr %32, align 8
  br label %evutil_freeaddrinfo.exit

evutil_freeaddrinfo.exit:                         ; preds = %30, %._crit_edge.i, %12, %31
  %.0 = phi ptr [ %15, %31 ], [ null, %12 ], [ null, %._crit_edge.i ], [ null, %30 ]
  call void @llvm.lifetime.end.p0(i64 48, ptr nonnull %4) #30
  br label %49

33:                                               ; preds = %8, %3
  %34 = zext i32 %1 to i64
  %35 = add nuw nsw i64 %34, 48
  %36 = tail call ptr @event_mm_calloc_(i64 noundef 1, i64 noundef %35) #30
  %.not = icmp eq ptr %36, null
  br i1 %.not, label %49, label %37

37:                                               ; preds = %33
  %38 = getelementptr inbounds nuw i8, ptr %36, i64 48
  %39 = getelementptr inbounds nuw i8, ptr %36, i64 24
  store ptr %38, ptr %39, align 8
  tail call void @llvm.memcpy.p0.p0.i64(ptr nonnull align 2 %38, ptr align 2 %0, i64 %34, i1 false)
  %40 = getelementptr inbounds nuw i8, ptr %36, i64 16
  store i32 %1, ptr %40, align 8
  %41 = load i16, ptr %0, align 2
  %42 = zext i16 %41 to i32
  %43 = getelementptr inbounds nuw i8, ptr %36, i64 4
  store i32 %42, ptr %43, align 4
  store i32 -2147483648, ptr %36, align 8
  %44 = load i32, ptr %5, align 8
  %45 = getelementptr inbounds nuw i8, ptr %36, i64 8
  store i32 %44, ptr %45, align 8
  %46 = getelementptr inbounds nuw i8, ptr %2, i64 12
  %47 = load i32, ptr %46, align 4
  %48 = getelementptr inbounds nuw i8, ptr %36, i64 12
  store i32 %47, ptr %48, align 4
  br label %49

49:                                               ; preds = %33, %37, %evutil_freeaddrinfo.exit
  %.1 = phi ptr [ %.0, %evutil_freeaddrinfo.exit ], [ %36, %37 ], [ null, %33 ]
  ret ptr %.1
}